target datalayout = "e-m:e-p270:32:32-p271:32:32-p272:64:64-i64:64-i128:128-f80:128-n8:16:32:64-S128"
target triple = "x86_64-unknown-linux-gnu"

; Function Attrs: mustprogress uwtable
define noundef signext i8 @_ZNK6icu_7526CharsetRecog_IBM420_ar_rtl5matchEPNS_9InputTextEPNS_12CharsetMatchE(ptr noundef nonnull align 8 dereferenceable(8) %this, ptr noundef %textIn, ptr noundef %results) unnamed_addr #2 align 2 {
entry:
  %this.addr = alloca ptr, align 8
  %textIn.addr = alloca ptr, align 8
  %results.addr = alloca ptr, align 8
  %confidence = alloca i32, align 4
  store ptr %this, ptr %this.addr, align 8
  store ptr %textIn, ptr %textIn.addr, align 8
  store ptr %results, ptr %results.addr, align 8
  %this1 = load ptr, ptr %this.addr, align 8
  %0 = load ptr, ptr %textIn.addr, align 8
  %vtable = load ptr, ptr %this1, align 8
  %vfn = getelementptr inbounds ptr, ptr %vtable, i64 5
  %1 = load ptr, ptr %vfn, align 8
  %call = call noundef i32 %1(ptr noundef nonnull align 8 dereferenceable(8) %this1, ptr noundef %0, ptr noundef @_ZN6icu_75L20ngrams_IBM420_ar_rtlE, ptr noundef @_ZN6icu_75L17charMap_IBM420_arE)
  store i32 %call, ptr %confidence, align 4
  %2 = load ptr, ptr %results.addr, align 8
  %3 = load ptr, ptr %textIn.addr, align 8
  %4 = load i32, ptr %confidence, align 4
  call void @_ZN6icu_7512CharsetMatch3setEPNS_9InputTextEPKNS_17CharsetRecognizerEiPKcS7_(ptr noundef nonnull align 8 dereferenceable(32) %2, ptr noundef %3, ptr noundef %this1, i32 noundef %4, ptr noundef null, ptr noundef null)
  %5 = load i32, ptr %confidence, align 4
  %cmp = icmp sgt i32 %5, 0
  %conv = zext i1 %cmp to i8
  ret i8 %conv
}